target datalayout = "e-m:e-p270:32:32-p271:32:32-p272:64:64-i64:64-i128:128-f80:128-n8:16:32:64-S128"
target triple = "x86_64-pc-linux-gnu"

%struct.AVFilterContext = type { ptr, ptr, ptr, ptr, ptr, i32, ptr, ptr, i32, ptr, ptr, i32, i32, ptr, ptr, ptr, ptr, i32, ptr, i32, i32 }
%struct.DCTdnoizContext = type { ptr, ptr, [8 x ptr], [8 x [1 x double]], i32, i32, i32, float, float, [2 x [3 x ptr]], [8 x ptr], ptr, i32, i32, i32, i32, i32, ptr, ptr, ptr }

@.str.3 = private unnamed_addr constant [30 x i8] c"Assertion %s failed at %s:%d\0A\00", align 1
@.str.4 = private unnamed_addr constant [2 x i8] c"0\00", align 1
@.str.5 = private unnamed_addr constant [26 x i8] c"libavfilter/vf_dctdnoiz.c\00", align 1
@.str.22 = private unnamed_addr constant [60 x i8] c"Overlap value can not except %d with a block size of %dx%d\0A\00", align 1

; Function Attrs: cold nounwind optsize uwtable
define internal i32 @init(ptr noundef %0) #0 {
  %2 = alloca i32, align 4
  %3 = alloca ptr, align 8
  %4 = alloca ptr, align 8
  %5 = alloca i32, align 4
  store ptr %0, ptr %3, align 8, !tbaa !4
  call void @llvm.lifetime.start.p0(i64 8, ptr %4) #11
  %6 = load ptr, ptr %3, align 8, !tbaa !4
  %7 = getelementptr inbounds nuw %struct.AVFilterContext, ptr %6, i32 0, i32 9
  %8 = load ptr, ptr %7, align 8, !tbaa !9
  store ptr %8, ptr %4, align 8, !tbaa !22
  %9 = load ptr, ptr %4, align 8, !tbaa !22
  %10 = getelementptr inbounds nuw %struct.DCTdnoizContext, ptr %9, i32 0, i32 15
  %11 = load i32, ptr %10, align 4, !tbaa !24
  %12 = shl i32 1, %11
  %13 = load ptr, ptr %4, align 8, !tbaa !22
  %14 = getelementptr inbounds nuw %struct.DCTdnoizContext, ptr %13, i32 0, i32 16
  store i32 %12, ptr %14, align 8, !tbaa !28
  %15 = load ptr, ptr %4, align 8, !tbaa !22
  %16 = getelementptr inbounds nuw %struct.DCTdnoizContext, ptr %15, i32 0, i32 13
  %17 = load i32, ptr %16, align 4, !tbaa !29
  %18 = icmp eq i32 %17, -1
  br i1 %18, label %19, label %26

19:                                               ; preds = %1
  %20 = load ptr, ptr %4, align 8, !tbaa !22
  %21 = getelementptr inbounds nuw %struct.DCTdnoizContext, ptr %20, i32 0, i32 16
  %22 = load i32, ptr %21, align 8, !tbaa !28
  %23 = sub nsw i32 %22, 1
  %24 = load ptr, ptr %4, align 8, !tbaa !22
  %25 = getelementptr inbounds nuw %struct.DCTdnoizContext, ptr %24, i32 0, i32 13
  store i32 %23, ptr %25, align 4, !tbaa !29
  br label %26

26:                                               ; preds = %19, %1
  %27 = load ptr, ptr %4, align 8, !tbaa !22
  %28 = getelementptr inbounds nuw %struct.DCTdnoizContext, ptr %27, i32 0, i32 13
  %29 = load i32, ptr %28, align 4, !tbaa !29
  %30 = load ptr, ptr %4, align 8, !tbaa !22
  %31 = getelementptr inbounds nuw %struct.DCTdnoizContext, ptr %30, i32 0, i32 16
  %32 = load i32, ptr %31, align 8, !tbaa !28
  %33 = sub nsw i32 %32, 1
  %34 = icmp sgt i32 %29, %33
  br i1 %34, label %35, label %47

35:                                               ; preds = %26
  %36 = load ptr, ptr %4, align 8, !tbaa !22
  %37 = load ptr, ptr %4, align 8, !tbaa !22
  %38 = getelementptr inbounds nuw %struct.DCTdnoizContext, ptr %37, i32 0, i32 16
  %39 = load i32, ptr %38, align 8, !tbaa !28
  %40 = sub nsw i32 %39, 1
  %41 = load ptr, ptr %4, align 8, !tbaa !22
  %42 = getelementptr inbounds nuw %struct.DCTdnoizContext, ptr %41, i32 0, i32 16
  %43 = load i32, ptr %42, align 8, !tbaa !28
  %44 = load ptr, ptr %4, align 8, !tbaa !22
  %45 = getelementptr inbounds nuw %struct.DCTdnoizContext, ptr %44, i32 0, i32 16
  %46 = load i32, ptr %45, align 8, !tbaa !28
  call void (ptr, i32, ptr, ...) @av_log(ptr noundef %36, i32 noundef 16, ptr noundef @.str.22, i32 noundef %40, i32 noundef %43, i32 noundef %46)
  store i32 -22, ptr %2, align 4
  store i32 1, ptr %5, align 4
  br label %100

47:                                               ; preds = %26
  %48 = load ptr, ptr %4, align 8, !tbaa !22
  %49 = getelementptr inbounds nuw %struct.DCTdnoizContext, ptr %48, i32 0, i32 1
  %50 = load ptr, ptr %49, align 8, !tbaa !30
  %51 = icmp ne ptr %50, null
  br i1 %51, label %52, label %67

52:                                               ; preds = %47
  %53 = load ptr, ptr %4, align 8, !tbaa !22
  %54 = getelementptr inbounds nuw %struct.DCTdnoizContext, ptr %53, i32 0, i32 15
  %55 = load i32, ptr %54, align 4, !tbaa !24
  switch i32 %55, label %62 [
    i32 3, label %56
    i32 4, label %59
  ]

56:                                               ; preds = %52
  %57 = load ptr, ptr %4, align 8, !tbaa !22
  %58 = getelementptr inbounds nuw %struct.DCTdnoizContext, ptr %57, i32 0, i32 17
  store ptr @filter_freq_expr_8, ptr %58, align 8, !tbaa !31
  br label %66

59:                                               ; preds = %52
  %60 = load ptr, ptr %4, align 8, !tbaa !22
  %61 = getelementptr inbounds nuw %struct.DCTdnoizContext, ptr %60, i32 0, i32 17
  store ptr @filter_freq_expr_16, ptr %61, align 8, !tbaa !31
  br label %66

62:                                               ; preds = %52
  br label %63

63:                                               ; preds = %62
  call void (ptr, i32, ptr, ...) @av_log(ptr noundef null, i32 noundef 0, ptr noundef @.str.3, ptr noundef @.str.4, ptr noundef @.str.5, i32 noundef 645)
  call void @abort() #12
  unreachable

64:                                               ; No predecessors!
  br label %65

65:                                               ; preds = %64
  br label %66

66:                                               ; preds = %65, %59, %56
  br label %82

67:                                               ; preds = %47
  %68 = load ptr, ptr %4, align 8, !tbaa !22
  %69 = getelementptr inbounds nuw %struct.DCTdnoizContext, ptr %68, i32 0, i32 15
  %70 = load i32, ptr %69, align 4, !tbaa !24
  switch i32 %70, label %77 [
    i32 3, label %71
    i32 4, label %74
  ]

71:                                               ; preds = %67
  %72 = load ptr, ptr %4, align 8, !tbaa !22
  %73 = getelementptr inbounds nuw %struct.DCTdnoizContext, ptr %72, i32 0, i32 17
  store ptr @filter_freq_sigma_8, ptr %73, align 8, !tbaa !31
  br label %81

74:                                               ; preds = %67
  %75 = load ptr, ptr %4, align 8, !tbaa !22
  %76 = getelementptr inbounds nuw %struct.DCTdnoizContext, ptr %75, i32 0, i32 17
  store ptr @filter_freq_sigma_16, ptr %76, align 8, !tbaa !31
  br label %81

77:                                               ; preds = %67
  br label %78

78:                                               ; preds = %77
  call void (ptr, i32, ptr, ...) @av_log(ptr noundef null, i32 noundef 0, ptr noundef @.str.3, ptr noundef @.str.4, ptr noundef @.str.5, i32 noundef 651)
  call void @abort() #12
  unreachable

79:                                               ; No predecessors!
  br label %80

80:                                               ; preds = %79
  br label %81

81:                                               ; preds = %80, %74, %71
  br label %82

82:                                               ; preds = %81, %66
  %83 = load ptr, ptr %4, align 8, !tbaa !22
  %84 = getelementptr inbounds nuw %struct.DCTdnoizContext, ptr %83, i32 0, i32 7
  %85 = load float, ptr %84, align 4, !tbaa !32
  %86 = fpext nsz float %85 to double
  %87 = fmul nsz double %86, 3.000000e+00
  %88 = fptrunc nsz double %87 to float
  %89 = load ptr, ptr %4, align 8, !tbaa !22
  %90 = getelementptr inbounds nuw %struct.DCTdnoizContext, ptr %89, i32 0, i32 8
  store float %88, ptr %90, align 8, !tbaa !33
  %91 = load ptr, ptr %4, align 8, !tbaa !22
  %92 = getelementptr inbounds nuw %struct.DCTdnoizContext, ptr %91, i32 0, i32 16
  %93 = load i32, ptr %92, align 8, !tbaa !28
  %94 = load ptr, ptr %4, align 8, !tbaa !22
  %95 = getelementptr inbounds nuw %struct.DCTdnoizContext, ptr %94, i32 0, i32 13
  %96 = load i32, ptr %95, align 4, !tbaa !29
  %97 = sub nsw i32 %93, %96
  %98 = load ptr, ptr %4, align 8, !tbaa !22
  %99 = getelementptr inbounds nuw %struct.DCTdnoizContext, ptr %98, i32 0, i32 14
  store i32 %97, ptr %99, align 8, !tbaa !34
  store i32 0, ptr %2, align 4
  store i32 1, ptr %5, align 4
  br label %100

100:                                              ; preds = %82, %35
  call void @llvm.lifetime.end.p0(i64 8, ptr %4) #11
  %101 = load i32, ptr %2, align 4
  ret i32 %101
}