; Function Attrs: cold nounwind optsize uwtable
define internal range(i32 -22, 1) i32 @init(ptr noundef readonly captures(none) %0) #0 {
  %2 = getelementptr inbounds nuw i8, ptr %0, i64 72
  %3 = load ptr, ptr %2, align 8, !tbaa !4
  %4 = getelementptr inbounds nuw i8, ptr %3, i64 300
  %5 = load i32, ptr %4, align 4, !tbaa !20
  %6 = shl nuw i32 1, %5
  %7 = getelementptr inbounds nuw i8, ptr %3, i64 304
  store i32 %6, ptr %7, align 8, !tbaa !24
  %8 = getelementptr inbounds nuw i8, ptr %3, i64 292
  %9 = load i32, ptr %8, align 4, !tbaa !25
  %10 = icmp eq i32 %9, -1
  br i1 %10, label %.thread, label %12

.thread:                                          ; preds = %1
  %11 = add nsw i32 %6, -1
  store i32 %11, ptr %8, align 4, !tbaa !25
  br label %15

12:                                               ; preds = %1
  %.not = icmp slt i32 %9, %6
  br i1 %.not, label %15, label %13

13:                                               ; preds = %12
  %14 = add nsw i32 %6, -1
  tail call void (ptr, i32, ptr, ...) @av_log(ptr noundef nonnull %3, i32 noundef 16, ptr noundef nonnull @.str.22, i32 noundef %14, i32 noundef %6, i32 noundef %6) #13
  br label %33

15:                                               ; preds = %.thread, %12
  %16 = phi i32 [ %11, %.thread ], [ %9, %12 ]
  %17 = getelementptr inbounds nuw i8, ptr %3, i64 8
  %18 = load ptr, ptr %17, align 8, !tbaa !26
  %.not25 = icmp eq ptr %18, null
  br i1 %.not25, label %22, label %19

19:                                               ; preds = %15
  switch i32 %5, label %21 [
    i32 3, label %25
    i32 4, label %20
  ]

20:                                               ; preds = %19
  br label %25

21:                                               ; preds = %19
  tail call void (ptr, i32, ptr, ...) @av_log(ptr noundef null, i32 noundef 0, ptr noundef nonnull @.str.3, ptr noundef nonnull @.str.4, ptr noundef nonnull @.str.5, i32 noundef 645) #13
  tail call void @abort() #14
  unreachable

22:                                               ; preds = %15
  switch i32 %5, label %24 [
    i32 3, label %25
    i32 4, label %23
  ]

23:                                               ; preds = %22
  br label %25

24:                                               ; preds = %22
  tail call void (ptr, i32, ptr, ...) @av_log(ptr noundef null, i32 noundef 0, ptr noundef nonnull @.str.3, ptr noundef nonnull @.str.4, ptr noundef nonnull @.str.5, i32 noundef 651) #13
  tail call void @abort() #14
  unreachable

25:                                               ; preds = %22, %19, %23, %20
  %filter_freq_sigma_8.sink = phi ptr [ @filter_freq_sigma_16, %23 ], [ @filter_freq_expr_16, %20 ], [ @filter_freq_expr_8, %19 ], [ @filter_freq_sigma_8, %22 ]
  %26 = getelementptr inbounds nuw i8, ptr %3, i64 312
  store ptr %filter_freq_sigma_8.sink, ptr %26, align 8, !tbaa !27
  %27 = getelementptr inbounds nuw i8, ptr %3, i64 156
  %28 = load float, ptr %27, align 4, !tbaa !28
  %29 = fmul nsz float %28, 3.000000e+00
  %30 = getelementptr inbounds nuw i8, ptr %3, i64 160
  store float %29, ptr %30, align 8, !tbaa !29
  %31 = sub nsw i32 %6, %16
  %32 = getelementptr inbounds nuw i8, ptr %3, i64 296
  store i32 %31, ptr %32, align 8, !tbaa !30
  br label %33

33:                                               ; preds = %25, %13
  %.0 = phi i32 [ -22, %13 ], [ 0, %25 ]
  ret i32 %.0
}